target datalayout = "e-m:e-p270:32:32-p271:32:32-p272:64:64-i64:64-i128:128-f80:128-n8:16:32:64-S128"
target triple = "x86_64-pc-linux-gnu"

%"struct.(anonymous namespace)::EncapsulateInvertedLists" = type { %"struct.faiss::InvertedLists.base", ptr }
%"struct.faiss::InvertedLists.base" = type <{ ptr, i64, i64, i8 }>
%"struct.faiss::InvertedLists" = type <{ ptr, i64, i64, i8, [7 x i8] }>

; Function Attrs: mustprogress nounwind uwtable
define internal noundef ptr @_ZN12_GLOBAL__N_124EncapsulateInvertedLists6memdupEPKvm(ptr noundef %0, i64 noundef %1) #0 align 2 {
  %3 = alloca ptr, align 8
  %4 = alloca ptr, align 8
  %5 = alloca i64, align 8
  store ptr %0, ptr %4, align 8, !tbaa !40
  store i64 %1, ptr %5, align 8, !tbaa !18
  %6 = load i64, ptr %5, align 8, !tbaa !18
  %7 = icmp eq i64 %6, 0
  br i1 %7, label %8, label %9

8:                                                ; preds = %2
  store ptr null, ptr %3, align 8
  br label %14

9:                                                ; preds = %2
  %10 = load i64, ptr %5, align 8, !tbaa !18
  %11 = call noalias ptr @malloc(i64 noundef %10) #23
  %12 = load ptr, ptr %4, align 8, !tbaa !40
  %13 = load i64, ptr %5, align 8, !tbaa !18
  call void @llvm.memcpy.p0.p0.i64(ptr align 1 %11, ptr align 1 %12, i64 %13, i1 false)
  store ptr %11, ptr %3, align 8
  br label %14

14:                                               ; preds = %9, %8
  %15 = load ptr, ptr %3, align 8
  ret ptr %15
}

; Function Attrs: mustprogress uwtable
define internal noundef ptr @_ZNK12_GLOBAL__N_124EncapsulateInvertedLists9get_codesEm(ptr noundef nonnull align 8 dereferenceable(40) %0, i64 noundef %1) unnamed_addr #2 align 2 {
  %3 = alloca ptr, align 8
  %4 = alloca i64, align 8
  store ptr %0, ptr %3, align 8, !tbaa !122
  store i64 %1, ptr %4, align 8, !tbaa !18
  %5 = load ptr, ptr %3, align 8
  %6 = getelementptr inbounds nuw %"struct.(anonymous namespace)::EncapsulateInvertedLists", ptr %5, i32 0, i32 1
  %7 = load ptr, ptr %6, align 8, !tbaa !108
  %8 = load i64, ptr %4, align 8, !tbaa !18
  %9 = load ptr, ptr %7, align 8, !tbaa !43
  %10 = getelementptr inbounds ptr, ptr %9, i64 3
  %11 = load ptr, ptr %10, align 8
  %12 = call noundef ptr %11(ptr noundef nonnull align 8 dereferenceable(25) %7, i64 noundef %8)
  %13 = load i64, ptr %4, align 8, !tbaa !18
  %14 = load ptr, ptr %5, align 8, !tbaa !43
  %15 = getelementptr inbounds ptr, ptr %14, i64 2
  %16 = load ptr, ptr %15, align 8
  %17 = call noundef i64 %16(ptr noundef nonnull align 8 dereferenceable(40) %5, i64 noundef %13)
  %18 = getelementptr inbounds nuw %"struct.faiss::InvertedLists", ptr %5, i32 0, i32 2
  %19 = load i64, ptr %18, align 8, !tbaa !126
  %20 = mul i64 %17, %19
  %21 = call noundef ptr @_ZN12_GLOBAL__N_124EncapsulateInvertedLists6memdupEPKvm(ptr noundef %12, i64 noundef %20)
  ret ptr %21
}