; Function Attrs: mustprogress uwtable
define internal noundef ptr @_ZNK12_GLOBAL__N_124EncapsulateInvertedLists9get_codesEm(ptr noundef nonnull align 8 dereferenceable(40) %0, i64 noundef %1) unnamed_addr #2 align 2 {
  %3 = getelementptr inbounds nuw i8, ptr %0, i64 32
  %4 = load ptr, ptr %3, align 8, !tbaa !79
  %5 = load ptr, ptr %4, align 8, !tbaa !5
  %6 = getelementptr inbounds nuw i8, ptr %5, i64 24
  %7 = load ptr, ptr %6, align 8
  %8 = tail call noundef ptr %7(ptr noundef nonnull align 8 dereferenceable(25) %4, i64 noundef %1)
  %9 = load ptr, ptr %0, align 8, !tbaa !5
  %10 = getelementptr inbounds nuw i8, ptr %9, i64 16
  %11 = load ptr, ptr %10, align 8
  %12 = tail call noundef i64 %11(ptr noundef nonnull align 8 dereferenceable(40) %0, i64 noundef %1)
  %13 = getelementptr inbounds nuw i8, ptr %0, i64 16
  %14 = load i64, ptr %13, align 8, !tbaa !78
  %15 = mul i64 %14, %12
  %16 = icmp eq i64 %15, 0
  br i1 %16, label %_ZN12_GLOBAL__N_124EncapsulateInvertedLists6memdupEPKvm.exit, label %17

17:                                               ; preds = %2
  %18 = tail call noalias ptr @malloc(i64 noundef %15) #25
  tail call void @llvm.memcpy.p0.p0.i64(ptr align 1 %18, ptr readonly align 1 %8, i64 %15, i1 false)
  br label %_ZN12_GLOBAL__N_124EncapsulateInvertedLists6memdupEPKvm.exit

_ZN12_GLOBAL__N_124EncapsulateInvertedLists6memdupEPKvm.exit: ; preds = %2, %17
  %.0.i = phi ptr [ %18, %17 ], [ null, %2 ]
  ret ptr %.0.i
}